; Function Attrs: mustprogress uwtable
define internal void @_ZL31ucnvsel_close_selector_iteratorP12UEnumeration(ptr noundef %0) #0 {
  %2 = getelementptr inbounds nuw i8, ptr %0, i64 8
  %3 = load ptr, ptr %2, align 8, !tbaa !71
  %4 = load ptr, ptr %3, align 8, !tbaa !62
  tail call void @uprv_free_77(ptr noundef %4)
  %5 = load ptr, ptr %2, align 8, !tbaa !71
  tail call void @uprv_free_77(ptr noundef %5)
  tail call void @uprv_free_77(ptr noundef %0)
  ret void
}